target datalayout = "e-m:e-p270:32:32-p271:32:32-p272:64:64-i64:64-i128:128-f80:128-n8:16:32:64-S128"
target triple = "x86_64-pc-linux-gnu"

%struct._GArray = type { ptr, i32 }

@stderr = external global ptr, align 8
@.str.73 = private unnamed_addr constant [13 x i8] c"    %s - %s\0A\00", align 1
@.str.74 = private unnamed_addr constant [57 x i8] c"The available capture file types for the \22-F\22 flag are:\0A\00", align 1

; Function Attrs: null_pointer_is_valid sspstrong uwtable
define internal void @list_capture_types() #0 {
  %1 = alloca ptr, align 8
  %2 = alloca i32, align 4
  %3 = alloca i32, align 4
  call void @llvm.lifetime.start.p0(i64 8, ptr %1) #14
  call void (ptr, ...) @cmdarg_err(ptr noundef @.str.74)
  %4 = call ptr @wtap_get_writable_file_types_subtypes(i32 noundef 0)
  store ptr %4, ptr %1, align 8
  call void @llvm.lifetime.start.p0(i64 4, ptr %2) #14
  store i32 0, ptr %2, align 4
  br label %5

5:                                                ; preds = %26, %0
  %6 = load i32, ptr %2, align 4
  %7 = load ptr, ptr %1, align 8
  %8 = getelementptr inbounds nuw %struct._GArray, ptr %7, i32 0, i32 1
  %9 = load i32, ptr %8, align 8
  %10 = icmp ult i32 %6, %9
  br i1 %10, label %12, label %11

11:                                               ; preds = %5
  call void @llvm.lifetime.end.p0(i64 4, ptr %2) #14
  br label %29

12:                                               ; preds = %5
  call void @llvm.lifetime.start.p0(i64 4, ptr %3) #14
  %13 = load ptr, ptr %1, align 8
  %14 = getelementptr inbounds nuw %struct._GArray, ptr %13, i32 0, i32 0
  %15 = load ptr, ptr %14, align 8
  %16 = load i32, ptr %2, align 4
  %17 = zext i32 %16 to i64
  %18 = getelementptr i32, ptr %15, i64 %17
  %19 = load i32, ptr %18, align 4
  store i32 %19, ptr %3, align 4
  %20 = load ptr, ptr @stderr, align 8
  %21 = load i32, ptr %3, align 4
  %22 = call ptr @wtap_file_type_subtype_name(i32 noundef %21)
  %23 = load i32, ptr %3, align 4
  %24 = call ptr @wtap_file_type_subtype_description(i32 noundef %23)
  %25 = call i32 (ptr, i32, ptr, ...) @__fprintf_chk(ptr noundef %20, i32 noundef 2, ptr noundef @.str.73, ptr noundef %22, ptr noundef %24)
  call void @llvm.lifetime.end.p0(i64 4, ptr %3) #14
  br label %26

26:                                               ; preds = %12
  %27 = load i32, ptr %2, align 4
  %28 = add i32 %27, 1
  store i32 %28, ptr %2, align 4
  br label %5, !llvm.loop !12

29:                                               ; preds = %11
  %30 = load ptr, ptr %1, align 8
  %31 = call ptr @g_array_free(ptr noundef %30, i32 noundef 1)
  call void @llvm.lifetime.end.p0(i64 8, ptr %1) #14
  ret void
}