; Function Attrs: null_pointer_is_valid sspstrong uwtable
define internal fastcc void @list_capture_types() unnamed_addr #0 {
  tail call void (ptr, ...) @cmdarg_err(ptr noundef nonnull @.str.74)
  %1 = tail call ptr @wtap_get_writable_file_types_subtypes(i32 noundef 0)
  %2 = getelementptr inbounds nuw i8, ptr %1, i64 8
  %3 = load i32, ptr %2, align 8
  %.not = icmp eq i32 %3, 0
  br i1 %.not, label %._crit_edge, label %.lr.ph

._crit_edge:                                      ; preds = %.lr.ph, %0
  %4 = tail call ptr @g_array_free(ptr noundef %1, i32 noundef 1)
  ret void

.lr.ph:                                           ; preds = %0, %.lr.ph
  %indvars.iv = phi i64 [ %indvars.iv.next, %.lr.ph ], [ 0, %0 ]
  %5 = load ptr, ptr %1, align 8
  %6 = getelementptr i32, ptr %5, i64 %indvars.iv
  %7 = load i32, ptr %6, align 4
  %8 = load ptr, ptr @stderr, align 8
  %9 = tail call ptr @wtap_file_type_subtype_name(i32 noundef %7)
  %10 = tail call ptr @wtap_file_type_subtype_description(i32 noundef %7)
  %11 = tail call i32 (ptr, i32, ptr, ...) @__fprintf_chk(ptr noundef %8, i32 noundef 2, ptr noundef nonnull @.str.73, ptr noundef %9, ptr noundef %10)
  %indvars.iv.next = add nuw nsw i64 %indvars.iv, 1
  %12 = load i32, ptr %2, align 8
  %13 = zext i32 %12 to i64
  %14 = icmp samesign ult i64 %indvars.iv.next, %13
  br i1 %14, label %.lr.ph, label %._crit_edge, !llvm.loop !11
}